
./pi_spigot:     file format elf64-x86-64


Disassembly of section .init:

000000000040033c <_init>:
  40033c:	f3 0f 1e fa          	endbr64
  400340:	48 83 ec 08          	sub    rsp,0x8
  400344:	48 8b 05 95 2c 00 00 	mov    rax,QWORD PTR [rip+0x2c95]        # 402fe0 <__gmon_start__@Base>
  40034b:	48 85 c0             	test   rax,rax
  40034e:	74 02                	je     400352 <_init+0x16>
  400350:	ff d0                	call   rax
  400352:	48 83 c4 08          	add    rsp,0x8
  400356:	c3                   	ret

Disassembly of section .plt:

0000000000400360 <putchar@plt-0x10>:
  400360:	ff 35 8a 2c 00 00    	push   QWORD PTR [rip+0x2c8a]        # 402ff0 <_GLOBAL_OFFSET_TABLE_+0x8>
  400366:	ff 25 8c 2c 00 00    	jmp    QWORD PTR [rip+0x2c8c]        # 402ff8 <_GLOBAL_OFFSET_TABLE_+0x10>
  40036c:	0f 1f 40 00          	nop    DWORD PTR [rax+0x0]

0000000000400370 <putchar@plt>:
  400370:	ff 25 8a 2c 00 00    	jmp    QWORD PTR [rip+0x2c8a]        # 403000 <putchar@GLIBC_2.2.5>
  400376:	68 00 00 00 00       	push   0x0
  40037b:	e9 e0 ff ff ff       	jmp    400360 <_init+0x24>

0000000000400380 <printf@plt>:
  400380:	ff 25 82 2c 00 00    	jmp    QWORD PTR [rip+0x2c82]        # 403008 <printf@GLIBC_2.2.5>
  400386:	68 01 00 00 00       	push   0x1
  40038b:	e9 d0 ff ff ff       	jmp    400360 <_init+0x24>

Disassembly of section .text:

00000000004003a0 <main>:
  4003a0:	55                   	push   rbp
  4003a1:	b8 02 00 00 00       	mov    eax,0x2
  4003a6:	66 0f 6e c0          	movd   xmm0,eax
  4003aa:	66 0f 70 c0 00       	pshufd xmm0,xmm0,0x0
  4003af:	48 89 e5             	mov    rbp,rsp
  4003b2:	41 57                	push   r15
  4003b4:	41 56                	push   r14
  4003b6:	41 55                	push   r13
  4003b8:	41 54                	push   r12
  4003ba:	53                   	push   rbx
  4003bb:	48 81 ec 48 05 00 00 	sub    rsp,0x548
  4003c2:	4c 8d 6c 24 03       	lea    r13,[rsp+0x3]
  4003c7:	4c 89 eb             	mov    rbx,r13
  4003ca:	49 83 e5 fc          	and    r13,0xfffffffffffffffc
  4003ce:	48 c1 eb 02          	shr    rbx,0x2
  4003d2:	49 8d 95 30 05 00 00 	lea    rdx,[r13+0x530]
  4003d9:	41 0f 11 45 00       	movups XMMWORD PTR [r13+0x0],xmm0
  4003de:	49 8d 45 10          	lea    rax,[r13+0x10]
  4003e2:	0f 11 00             	movups XMMWORD PTR [rax],xmm0
  4003e5:	48 83 c0 20          	add    rax,0x20
  4003e9:	0f 11 40 f0          	movups XMMWORD PTR [rax-0x10],xmm0
  4003ed:	48 39 d0             	cmp    rax,rdx
  4003f0:	75 f0                	jne    4003e2 <main+0x42>
  4003f2:	48 8b 05 cf 0d 00 00 	mov    rax,QWORD PTR [rip+0xdcf]        # 4011c8 <__dso_handle+0x18>
  4003f9:	be 9b 02 00 00       	mov    esi,0x29b
  4003fe:	b9 4e 01 00 00       	mov    ecx,0x14e
  400403:	48 89 04 9d 30 05 00 	mov    QWORD PTR [rbx*4+0x530],rax
  40040a:	00 
  40040b:	31 c0                	xor    eax,eax
  40040d:	41 8b 54 8d fc       	mov    edx,DWORD PTR [r13+rcx*4-0x4]
  400412:	0f af c1             	imul   eax,ecx
  400415:	8d 14 92             	lea    edx,[rdx+rdx*4]
  400418:	8d 04 50             	lea    eax,[rax+rdx*2]
  40041b:	99                   	cdq
  40041c:	f7 fe                	idiv   esi
  40041e:	83 ee 02             	sub    esi,0x2
  400421:	41 89 54 8d fc       	mov    DWORD PTR [r13+rcx*4-0x4],edx
  400426:	48 83 e9 01          	sub    rcx,0x1
  40042a:	75 e1                	jne    40040d <main+0x6d>
  40042c:	48 63 f0             	movsxd rsi,eax
  40042f:	99                   	cdq
  400430:	bf b8 11 40 00       	mov    edi,0x4011b8
  400435:	48 69 f6 67 66 66 66 	imul   rsi,rsi,0x66666667
  40043c:	48 c1 fe 22          	sar    rsi,0x22
  400440:	29 d6                	sub    esi,edx
  400442:	8d 14 b6             	lea    edx,[rsi+rsi*4]
  400445:	01 d2                	add    edx,edx
  400447:	29 d0                	sub    eax,edx
  400449:	89 04 9d 00 00 00 00 	mov    DWORD PTR [rbx*4+0x0],eax
  400450:	31 c0                	xor    eax,eax
  400452:	e8 29 ff ff ff       	call   400380 <printf@plt>
  400457:	be 9b 02 00 00       	mov    esi,0x29b
  40045c:	b9 4e 01 00 00       	mov    ecx,0x14e
  400461:	31 c0                	xor    eax,eax
  400463:	41 8b 54 8d fc       	mov    edx,DWORD PTR [r13+rcx*4-0x4]
  400468:	0f af c1             	imul   eax,ecx
  40046b:	8d 14 92             	lea    edx,[rdx+rdx*4]
  40046e:	8d 04 50             	lea    eax,[rax+rdx*2]
  400471:	99                   	cdq
  400472:	f7 fe                	idiv   esi
  400474:	83 ee 02             	sub    esi,0x2
  400477:	41 89 54 8d fc       	mov    DWORD PTR [r13+rcx*4-0x4],edx
  40047c:	48 83 e9 01          	sub    rcx,0x1
  400480:	75 e1                	jne    400463 <main+0xc3>
  400482:	48 63 f0             	movsxd rsi,eax
  400485:	99                   	cdq
  400486:	41 bc 63 00 00 00    	mov    r12d,0x63
  40048c:	48 69 f6 67 66 66 66 	imul   rsi,rsi,0x66666667
  400493:	48 c1 fe 22          	sar    rsi,0x22
  400497:	29 d6                	sub    esi,edx
  400499:	8d 14 b6             	lea    edx,[rsi+rsi*4]
  40049c:	01 d2                	add    edx,edx
  40049e:	29 d0                	sub    eax,edx
  4004a0:	89 04 9d 00 00 00 00 	mov    DWORD PTR [rbx*4+0x0],eax
  4004a7:	31 db                	xor    ebx,ebx
  4004a9:	bf 9b 02 00 00       	mov    edi,0x29b
  4004ae:	b9 4e 01 00 00       	mov    ecx,0x14e
  4004b3:	31 c0                	xor    eax,eax
  4004b5:	66 66 2e 0f 1f 84 00 	data16 cs nop WORD PTR [rax+rax*1+0x0]
  4004bc:	00 00 00 00 
  4004c0:	41 8b 54 8d fc       	mov    edx,DWORD PTR [r13+rcx*4-0x4]
  4004c5:	0f af c1             	imul   eax,ecx
  4004c8:	8d 14 92             	lea    edx,[rdx+rdx*4]
  4004cb:	8d 04 50             	lea    eax,[rax+rdx*2]
  4004ce:	99                   	cdq
  4004cf:	f7 ff                	idiv   edi
  4004d1:	83 ef 02             	sub    edi,0x2
  4004d4:	41 89 54 8d fc       	mov    DWORD PTR [r13+rcx*4-0x4],edx
  4004d9:	48 83 e9 01          	sub    rcx,0x1
  4004dd:	75 e1                	jne    4004c0 <main+0x120>
  4004df:	4c 63 f0             	movsxd r14,eax
  4004e2:	99                   	cdq
  4004e3:	4d 69 f6 67 66 66 66 	imul   r14,r14,0x66666667
  4004ea:	49 c1 fe 22          	sar    r14,0x22
  4004ee:	41 29 d6             	sub    r14d,edx
  4004f1:	43 8d 14 b6          	lea    edx,[r14+r14*4]
  4004f5:	01 d2                	add    edx,edx
  4004f7:	29 d0                	sub    eax,edx
  4004f9:	41 89 45 00          	mov    DWORD PTR [r13+0x0],eax
  4004fd:	41 83 fe 09          	cmp    r14d,0x9
  400501:	74 5c                	je     40055f <main+0x1bf>
  400503:	41 83 fe 0a          	cmp    r14d,0xa
  400507:	74 5b                	je     400564 <main+0x1c4>
  400509:	bf bc 11 40 00       	mov    edi,0x4011bc
  40050e:	31 c0                	xor    eax,eax
  400510:	45 31 ff             	xor    r15d,r15d
  400513:	e8 68 fe ff ff       	call   400380 <printf@plt>
  400518:	85 db                	test   ebx,ebx
  40051a:	74 17                	je     400533 <main+0x193>
  40051c:	0f 1f 40 00          	nop    DWORD PTR [rax+0x0]
  400520:	bf 39 00 00 00       	mov    edi,0x39
  400525:	41 83 c7 01          	add    r15d,0x1
  400529:	e8 42 fe ff ff       	call   400370 <putchar@plt>
  40052e:	41 39 df             	cmp    r15d,ebx
  400531:	75 ed                	jne    400520 <main+0x180>
  400533:	44 89 f6             	mov    esi,r14d
  400536:	31 db                	xor    ebx,ebx
  400538:	41 83 ec 01          	sub    r12d,0x1
  40053c:	0f 85 67 ff ff ff    	jne    4004a9 <main+0x109>
  400542:	bf bf 11 40 00       	mov    edi,0x4011bf
  400547:	31 c0                	xor    eax,eax
  400549:	e8 32 fe ff ff       	call   400380 <printf@plt>
  40054e:	48 8d 65 d8          	lea    rsp,[rbp-0x28]
  400552:	31 c0                	xor    eax,eax
  400554:	5b                   	pop    rbx
  400555:	41 5c                	pop    r12
  400557:	41 5d                	pop    r13
  400559:	41 5e                	pop    r14
  40055b:	41 5f                	pop    r15
  40055d:	5d                   	pop    rbp
  40055e:	c3                   	ret
  40055f:	83 c3 01             	add    ebx,0x1
  400562:	eb d4                	jmp    400538 <main+0x198>
  400564:	83 c6 01             	add    esi,0x1
  400567:	31 c0                	xor    eax,eax
  400569:	bf bc 11 40 00       	mov    edi,0x4011bc
  40056e:	e8 0d fe ff ff       	call   400380 <printf@plt>
  400573:	85 db                	test   ebx,ebx
  400575:	74 1c                	je     400593 <main+0x1f3>
  400577:	45 31 f6             	xor    r14d,r14d
  40057a:	66 0f 1f 44 00 00    	nop    WORD PTR [rax+rax*1+0x0]
  400580:	bf 30 00 00 00       	mov    edi,0x30
  400585:	41 83 c6 01          	add    r14d,0x1
  400589:	e8 e2 fd ff ff       	call   400370 <putchar@plt>
  40058e:	41 39 de             	cmp    r14d,ebx
  400591:	75 ed                	jne    400580 <main+0x1e0>
  400593:	31 f6                	xor    esi,esi
  400595:	31 db                	xor    ebx,ebx
  400597:	eb 9f                	jmp    400538 <main+0x198>
  400599:	0f 1f 80 00 00 00 00 	nop    DWORD PTR [rax+0x0]

00000000004005a0 <_start>:
  4005a0:	f3 0f 1e fa          	endbr64
  4005a4:	31 ed                	xor    ebp,ebp
  4005a6:	49 89 d1             	mov    r9,rdx
  4005a9:	5e                   	pop    rsi
  4005aa:	48 89 e2             	mov    rdx,rsp
  4005ad:	48 83 e4 f0          	and    rsp,0xfffffffffffffff0
  4005b1:	50                   	push   rax
  4005b2:	54                   	push   rsp
  4005b3:	45 31 c0             	xor    r8d,r8d
  4005b6:	31 c9                	xor    ecx,ecx
  4005b8:	48 c7 c7 a0 03 40 00 	mov    rdi,0x4003a0
  4005bf:	ff 15 13 2a 00 00    	call   QWORD PTR [rip+0x2a13]        # 402fd8 <__libc_start_main@GLIBC_2.34>
  4005c5:	f4                   	hlt
  4005c6:	66 2e 0f 1f 84 00 00 	cs nop WORD PTR [rax+rax*1+0x0]
  4005cd:	00 00 00 

00000000004005d0 <_dl_relocate_static_pie>:
  4005d0:	f3 0f 1e fa          	endbr64
  4005d4:	c3                   	ret
  4005d5:	66 2e 0f 1f 84 00 00 	cs nop WORD PTR [rax+rax*1+0x0]
  4005dc:	00 00 00 
  4005df:	90                   	nop

00000000004005e0 <deregister_tm_clones>:
  4005e0:	b8 18 30 40 00       	mov    eax,0x403018
  4005e5:	48 3d 18 30 40 00    	cmp    rax,0x403018
  4005eb:	74 13                	je     400600 <deregister_tm_clones+0x20>
  4005ed:	b8 00 00 00 00       	mov    eax,0x0
  4005f2:	48 85 c0             	test   rax,rax
  4005f5:	74 09                	je     400600 <deregister_tm_clones+0x20>
  4005f7:	bf 18 30 40 00       	mov    edi,0x403018
  4005fc:	ff e0                	jmp    rax
  4005fe:	66 90                	xchg   ax,ax
  400600:	c3                   	ret
  400601:	0f 1f 40 00          	nop    DWORD PTR [rax+0x0]
  400605:	66 66 2e 0f 1f 84 00 	data16 cs nop WORD PTR [rax+rax*1+0x0]
  40060c:	00 00 00 00 

0000000000400610 <register_tm_clones>:
  400610:	be 18 30 40 00       	mov    esi,0x403018
  400615:	48 81 ee 18 30 40 00 	sub    rsi,0x403018
  40061c:	48 89 f0             	mov    rax,rsi
  40061f:	48 c1 ee 3f          	shr    rsi,0x3f
  400623:	48 c1 f8 03          	sar    rax,0x3
  400627:	48 01 c6             	add    rsi,rax
  40062a:	48 d1 fe             	sar    rsi,1
  40062d:	74 11                	je     400640 <register_tm_clones+0x30>
  40062f:	b8 00 00 00 00       	mov    eax,0x0
  400634:	48 85 c0             	test   rax,rax
  400637:	74 07                	je     400640 <register_tm_clones+0x30>
  400639:	bf 18 30 40 00       	mov    edi,0x403018
  40063e:	ff e0                	jmp    rax
  400640:	c3                   	ret
  400641:	0f 1f 40 00          	nop    DWORD PTR [rax+0x0]
  400645:	66 66 2e 0f 1f 84 00 	data16 cs nop WORD PTR [rax+rax*1+0x0]
  40064c:	00 00 00 00 

0000000000400650 <__do_global_dtors_aux>:
  400650:	f3 0f 1e fa          	endbr64
  400654:	80 3d b9 29 00 00 00 	cmp    BYTE PTR [rip+0x29b9],0x0        # 403014 <completed.0>
  40065b:	75 13                	jne    400670 <__do_global_dtors_aux+0x20>
  40065d:	55                   	push   rbp
  40065e:	48 89 e5             	mov    rbp,rsp
  400661:	e8 7a ff ff ff       	call   4005e0 <deregister_tm_clones>
  400666:	c6 05 a7 29 00 00 01 	mov    BYTE PTR [rip+0x29a7],0x1        # 403014 <completed.0>
  40066d:	5d                   	pop    rbp
  40066e:	c3                   	ret
  40066f:	90                   	nop
  400670:	c3                   	ret
  400671:	0f 1f 40 00          	nop    DWORD PTR [rax+0x0]
  400675:	66 66 2e 0f 1f 84 00 	data16 cs nop WORD PTR [rax+rax*1+0x0]
  40067c:	00 00 00 00 

0000000000400680 <frame_dummy>:
  400680:	f3 0f 1e fa          	endbr64
  400684:	eb 8a                	jmp    400610 <register_tm_clones>

Disassembly of section .fini:

0000000000400688 <_fini>:
  400688:	f3 0f 1e fa          	endbr64
  40068c:	48 83 ec 08          	sub    rsp,0x8
  400690:	48 83 c4 08          	add    rsp,0x8
  400694:	c3                   	ret
